; Function Attrs: mustprogress nounwind uwtable
define dso_local noundef zeroext i1 @_ZNK5clang6Parser14isFoldOperatorENS_3tok9TokenKindE(ptr nocapture noundef nonnull readonly align 8 dereferenceable(2936) %0, i16 noundef zeroext %1) local_unnamed_addr #0 align 2 {
  %3 = getelementptr inbounds nuw i8, ptr %0, i64 984
  %4 = load i8, ptr %3, align 8
  %5 = trunc i8 %4 to i1
  %6 = tail call noundef i32 @_ZN5clang18getBinOpPrecedenceENS_3tok9TokenKindEbb(i16 noundef zeroext %1, i1 noundef zeroext %5, i1 noundef zeroext true) #18
  %7 = icmp sgt i32 %6, 0
  %8 = and i32 %6, -9
  %9 = icmp ne i32 %8, 3
  %spec.select.i = and i1 %7, %9
  ret i1 %spec.select.i
}